; ModuleID = '12/742.c'
source_filename = "12/742.c"
target datalayout = "e-m:e-p270:32:32-p271:32:32-p272:64:64-i64:64-f80:128-n8:16:32:64-S128"
target triple = "x86_64-pc-linux-gnu"

@.str = private unnamed_addr constant [3 x i8] c"%d\00", align 1
@.str.1 = private unnamed_addr constant [4 x i8] c"%d\0A\00", align 1

; Function Attrs: noinline nounwind uwtable
define dso_local i32 @main() #0 {
  %1 = alloca i32, align 4
  %2 = alloca [101 x [16 x i32]], align 16
  %3 = alloca [100 x i32], align 16
  %4 = alloca [101 x i32], align 16
  %5 = alloca i32, align 4
  %6 = alloca i32, align 4
  %7 = alloca i32, align 4
  %8 = alloca i32, align 4
  %9 = alloca i32, align 4
  store i32 0, i32* %1, align 4
  %10 = bitcast [100 x i32]* %3 to i8*
  call void @llvm.memset.p0i8.i64(i8* align 16 %10, i8 0, i64 400, i1 false)
  store i32 1, i32* %6, align 4
  br label %11

11:                                               ; preds = %58, %0
  br i1 true, label %12, label %61

12:                                               ; preds = %11
  %13 = load i32, i32* %6, align 4
  %14 = sext i32 %13 to i64
  %15 = getelementptr inbounds [101 x [16 x i32]], [101 x [16 x i32]]* %2, i64 0, i64 %14
  %16 = getelementptr inbounds [16 x i32], [16 x i32]* %15, i64 0, i64 1
  %17 = call i32 (i8*, ...) @__isoc99_scanf(i8* getelementptr inbounds ([3 x i8], [3 x i8]* @.str, i64 0, i64 0), i32* %16)
  %18 = load i32, i32* %6, align 4
  %19 = sext i32 %18 to i64
  %20 = getelementptr inbounds [101 x [16 x i32]], [101 x [16 x i32]]* %2, i64 0, i64 %19
  %21 = getelementptr inbounds [16 x i32], [16 x i32]* %20, i64 0, i64 1
  %22 = load i32, i32* %21, align 4
  %23 = icmp eq i32 %22, -1
  br i1 %23, label %24, label %27

24:                                               ; preds = %12
  %25 = load i32, i32* %6, align 4
  %26 = add nsw i32 %25, -1
  store i32 %26, i32* %6, align 4
  br label %61

27:                                               ; preds = %12
  store i32 2, i32* %7, align 4
  br label %28

28:                                               ; preds = %49, %27
  br i1 true, label %29, label %52

29:                                               ; preds = %28
  %30 = load i32, i32* %6, align 4
  %31 = sext i32 %30 to i64
  %32 = getelementptr inbounds [101 x [16 x i32]], [101 x [16 x i32]]* %2, i64 0, i64 %31
  %33 = load i32, i32* %7, align 4
  %34 = sext i32 %33 to i64
  %35 = getelementptr inbounds [16 x i32], [16 x i32]* %32, i64 0, i64 %34
  %36 = call i32 (i8*, ...) @__isoc99_scanf(i8* getelementptr inbounds ([3 x i8], [3 x i8]* @.str, i64 0, i64 0), i32* %35)
  %37 = load i32, i32* %6, align 4
  %38 = sext i32 %37 to i64
  %39 = getelementptr inbounds [101 x [16 x i32]], [101 x [16 x i32]]* %2, i64 0, i64 %38
  %40 = load i32, i32* %7, align 4
  %41 = sext i32 %40 to i64
  %42 = getelementptr inbounds [16 x i32], [16 x i32]* %39, i64 0, i64 %41
  %43 = load i32, i32* %42, align 4
  %44 = icmp eq i32 %43, 0
  br i1 %44, label %45, label %48

45:                                               ; preds = %29
  %46 = load i32, i32* %7, align 4
  %47 = sub nsw i32 %46, 1
  store i32 %47, i32* %7, align 4
  br label %52

48:                                               ; preds = %29
  br label %49

49:                                               ; preds = %48
  %50 = load i32, i32* %7, align 4
  %51 = add nsw i32 %50, 1
  store i32 %51, i32* %7, align 4
  br label %28

52:                                               ; preds = %45, %28
  br label %53

53:                                               ; preds = %52
  %54 = load i32, i32* %7, align 4
  %55 = load i32, i32* %6, align 4
  %56 = sext i32 %55 to i64
  %57 = getelementptr inbounds [101 x i32], [101 x i32]* %4, i64 0, i64 %56
  store i32 %54, i32* %57, align 4
  br label %58

58:                                               ; preds = %53
  %59 = load i32, i32* %6, align 4
  %60 = add nsw i32 %59, 1
  store i32 %60, i32* %6, align 4
  br label %11

61:                                               ; preds = %24, %11
  store i32 1, i32* %5, align 4
  br label %62

62:                                               ; preds = %147, %61
  %63 = load i32, i32* %5, align 4
  %64 = load i32, i32* %6, align 4
  %65 = icmp sle i32 %63, %64
  br i1 %65, label %66, label %150

66:                                               ; preds = %62
  store i32 1, i32* %8, align 4
  br label %67

67:                                               ; preds = %138, %66
  %68 = load i32, i32* %8, align 4
  %69 = load i32, i32* %5, align 4
  %70 = sext i32 %69 to i64
  %71 = getelementptr inbounds [101 x i32], [101 x i32]* %4, i64 0, i64 %70
  %72 = load i32, i32* %71, align 4
  %73 = icmp sle i32 %68, %72
  br i1 %73, label %74, label %141

74:                                               ; preds = %67
  store i32 1, i32* %9, align 4
  br label %75

75:                                               ; preds = %134, %74
  %76 = load i32, i32* %9, align 4
  %77 = load i32, i32* %5, align 4
  %78 = sext i32 %77 to i64
  %79 = getelementptr inbounds [101 x i32], [101 x i32]* %4, i64 0, i64 %78
  %80 = load i32, i32* %79, align 4
  %81 = icmp sle i32 %76, %80
  br i1 %81, label %82, label %137

82:                                               ; preds = %75
  %83 = load i32, i32* %5, align 4
  %84 = sext i32 %83 to i64
  %85 = getelementptr inbounds [101 x [16 x i32]], [101 x [16 x i32]]* %2, i64 0, i64 %84
  %86 = load i32, i32* %9, align 4
  %87 = sext i32 %86 to i64
  %88 = getelementptr inbounds [16 x i32], [16 x i32]* %85, i64 0, i64 %87
  %89 = load i32, i32* %88, align 4
  %90 = load i32, i32* %5, align 4
  %91 = sext i32 %90 to i64
  %92 = getelementptr inbounds [101 x [16 x i32]], [101 x [16 x i32]]* %2, i64 0, i64 %91
  %93 = load i32, i32* %8, align 4
  %94 = sext i32 %93 to i64
  %95 = getelementptr inbounds [16 x i32], [16 x i32]* %92, i64 0, i64 %94
  %96 = load i32, i32* %95, align 4
  %97 = sdiv i32 %89, %96
  %98 = icmp eq i32 %97, 2
  br i1 %98, label %99, label %125

99:                                               ; preds = %82
  %100 = load i32, i32* %5, align 4
  %101 = sext i32 %100 to i64
  %102 = getelementptr inbounds [101 x [16 x i32]], [101 x [16 x i32]]* %2, i64 0, i64 %101
  %103 = load i32, i32* %9, align 4
  %104 = sext i32 %103 to i64
  %105 = getelementptr inbounds [16 x i32], [16 x i32]* %102, i64 0, i64 %104
  %106 = load i32, i32* %105, align 4
  %107 = load i32, i32* %5, align 4
  %108 = sext i32 %107 to i64
  %109 = getelementptr inbounds [101 x [16 x i32]], [101 x [16 x i32]]* %2, i64 0, i64 %108
  %110 = load i32, i32* %8, align 4
  %111 = sext i32 %110 to i64
  %112 = getelementptr inbounds [16 x i32], [16 x i32]* %109, i64 0, i64 %111
  %113 = load i32, i32* %112, align 4
  %114 = srem i32 %106, %113
  %115 = icmp eq i32 %114, 0
  br i1 %115, label %116, label %125

116:                                              ; preds = %99
  %117 = load i32, i32* %5, align 4
  %118 = sext i32 %117 to i64
  %119 = getelementptr inbounds [100 x i32], [100 x i32]* %3, i64 0, i64 %118
  %120 = load i32, i32* %119, align 4
  %121 = add nsw i32 %120, 1
  %122 = load i32, i32* %5, align 4
  %123 = sext i32 %122 to i64
  %124 = getelementptr inbounds [100 x i32], [100 x i32]* %3, i64 0, i64 %123
  store i32 %121, i32* %124, align 4
  br label %133

125:                                              ; preds = %99, %82
  %126 = load i32, i32* %5, align 4
  %127 = sext i32 %126 to i64
  %128 = getelementptr inbounds [100 x i32], [100 x i32]* %3, i64 0, i64 %127
  %129 = load i32, i32* %128, align 4
  %130 = load i32, i32* %5, align 4
  %131 = sext i32 %130 to i64
  %132 = getelementptr inbounds [100 x i32], [100 x i32]* %3, i64 0, i64 %131
  store i32 %129, i32* %132, align 4
  br label %133

133:                                              ; preds = %125, %116
  br label %134

134:                                              ; preds = %133
  %135 = load i32, i32* %9, align 4
  %136 = add nsw i32 %135, 1
  store i32 %136, i32* %9, align 4
  br label %75

137:                                              ; preds = %75
  br label %138

138:                                              ; preds = %137
  %139 = load i32, i32* %8, align 4
  %140 = add nsw i32 %139, 1
  store i32 %140, i32* %8, align 4
  br label %67

141:                                              ; preds = %67
  %142 = load i32, i32* %5, align 4
  %143 = sext i32 %142 to i64
  %144 = getelementptr inbounds [100 x i32], [100 x i32]* %3, i64 0, i64 %143
  %145 = load i32, i32* %144, align 4
  %146 = call i32 (i8*, ...) @printf(i8* getelementptr inbounds ([4 x i8], [4 x i8]* @.str.1, i64 0, i64 0), i32 %145)
  br label %147

147:                                              ; preds = %141
  %148 = load i32, i32* %5, align 4
  %149 = add nsw i32 %148, 1
  store i32 %149, i32* %5, align 4
  br label %62

150:                                              ; preds = %62
  ret i32 0
}

; Function Attrs: argmemonly nounwind willreturn
declare void @llvm.memset.p0i8.i64(i8* nocapture writeonly, i8, i64, i1 immarg) #1

declare dso_local i32 @__isoc99_scanf(i8*, ...) #2

declare dso_local i32 @printf(i8*, ...) #2


!llvm.module.flags = !{!0}
!llvm.ident = !{!1}

!0 = !{i32 1, !"wchar_size", i32 4}
!1 = !{!"clang version 10.0.0-4ubuntu1 "}
